target datalayout = "e-m:e-p270:32:32-p271:32:32-p272:64:64-i64:64-i128:128-f80:128-n8:16:32:64-S128"
target triple = "x86_64-pc-linux-gnu"

%struct.H5FD_core_t = type { %struct.H5FD_t, ptr, ptr, i64, i64, i64, i8, i8, i64, i8, i32, i64, i64, i8, %struct.H5FD_file_image_callbacks_t, ptr }
%struct.H5FD_t = type { i64, ptr, i64, i32, i64, i64, i64, i64, i64, i8 }
%struct.H5FD_file_image_callbacks_t = type { ptr, ptr, ptr, ptr, ptr, ptr, ptr }

@H5FD_init_g = external global i8, align 1
@H5_libterm_g = external global i8, align 1
@.str.1 = private unnamed_addr constant [102 x i8] c"generated/home/dtcxzyw/WorkSpace/Projects/compilers/llvm-opt-benchmark/bench/hdf5/hdf5/src/H5FDcore.c\00", align 1
@H5E_VFL_g = external global i64, align 8
@H5E_ARGS_g = external global i64, align 8
@H5E_BADVALUE_g = external global i64, align 8
@H5E_BADTYPE_g = external global i64, align 8
@.str.11 = private unnamed_addr constant [32 x i8] c"not a file access property list\00", align 1
@H5E_CANTGET_g = external global i64, align 8
@__func__.H5FD__core_get_handle = private unnamed_addr constant [22 x i8] c"H5FD__core_get_handle\00", align 1
@.str.39 = private unnamed_addr constant [22 x i8] c"file handle not valid\00", align 1
@H5P_LST_FILE_ACCESS_ID_g = external global i64, align 8
@.str.40 = private unnamed_addr constant [14 x i8] c"want_posix_fd\00", align 1
@.str.41 = private unnamed_addr constant [49 x i8] c"can't get property of retrieving file descriptor\00", align 1

; Function Attrs: nounwind uwtable
define internal i32 @H5FD__core_get_handle(ptr noundef %0, i64 noundef %1, ptr noundef %2) #0 {
  %4 = alloca i32, align 4
  %5 = alloca ptr, align 8
  %6 = alloca i64, align 8
  %7 = alloca ptr, align 8
  %8 = alloca ptr, align 8
  %9 = alloca i32, align 4
  %10 = alloca i8, align 1
  %11 = alloca ptr, align 8
  %12 = alloca i8, align 1
  %13 = alloca i32, align 4
  store ptr %0, ptr %5, align 8, !tbaa !29
  store i64 %1, ptr %6, align 8, !tbaa !11
  store ptr %2, ptr %7, align 8, !tbaa !33
  call void @llvm.lifetime.start.p0(i64 8, ptr %8) #12
  %14 = load ptr, ptr %5, align 8, !tbaa !29
  store ptr %14, ptr %8, align 8, !tbaa !31
  call void @llvm.lifetime.start.p0(i64 4, ptr %9) #12
  store i32 0, ptr %9, align 4, !tbaa !3
  call void @llvm.lifetime.start.p0(i64 1, ptr %10) #12
  store i8 0, ptr %10, align 1, !tbaa !7
  %15 = load i8, ptr @H5FD_init_g, align 1, !tbaa !7, !range !9, !noundef !10
  %16 = trunc i8 %15 to i1
  br i1 %16, label %21, label %17

17:                                               ; preds = %3
  %18 = load i8, ptr @H5_libterm_g, align 1, !tbaa !7, !range !9, !noundef !10
  %19 = trunc i8 %18 to i1
  %20 = xor i1 %19, true
  br label %21

21:                                               ; preds = %17, %3
  %22 = phi i1 [ true, %3 ], [ %20, %17 ]
  %23 = xor i1 %22, true
  %24 = xor i1 %23, true
  %25 = zext i1 %24 to i32
  %26 = sext i32 %25 to i64
  %27 = call i64 @llvm.expect.i64(i64 %26, i64 1)
  %28 = icmp ne i64 %27, 0
  br i1 %28, label %29, label %137

29:                                               ; preds = %21
  %30 = load ptr, ptr %7, align 8, !tbaa !33
  %31 = icmp ne ptr %30, null
  br i1 %31, label %51, label %32

32:                                               ; preds = %29
  br label %33

33:                                               ; preds = %32
  br label %34

34:                                               ; preds = %33
  br label %35

35:                                               ; preds = %34
  %36 = load i64, ptr @H5E_ARGS_g, align 8, !tbaa !11
  %37 = load i64, ptr @H5E_BADVALUE_g, align 8, !tbaa !11
  %38 = call i32 (ptr, ptr, i32, i64, i64, ptr, ...) @H5E_printf_stack(ptr noundef @.str.1, ptr noundef @__func__.H5FD__core_get_handle, i32 noundef 1230, i64 noundef %36, i64 noundef %37, ptr noundef @.str.39)
  br label %39

39:                                               ; preds = %35
  br label %40

40:                                               ; preds = %39
  store i8 1, ptr %10, align 1, !tbaa !7
  %41 = load i8, ptr %10, align 1, !tbaa !7, !range !9, !noundef !10
  %42 = trunc i8 %41 to i1
  %43 = zext i1 %42 to i8
  store i8 %43, ptr %10, align 1, !tbaa !7
  br label %44

44:                                               ; preds = %40
  br label %45

45:                                               ; preds = %44
  br label %46

46:                                               ; preds = %45
  store i32 -1, ptr %9, align 4, !tbaa !3
  br label %136

47:                                               ; No predecessors!
  br label %48

48:                                               ; preds = %47
  br label %49

49:                                               ; preds = %48
  br label %50

50:                                               ; preds = %49
  br label %51

51:                                               ; preds = %50, %29
  %52 = load i64, ptr @H5P_LST_FILE_ACCESS_ID_g, align 8, !tbaa !11
  %53 = load i64, ptr %6, align 8, !tbaa !11
  %54 = icmp ne i64 %52, %53
  br i1 %54, label %55, label %131

55:                                               ; preds = %51
  %56 = load i64, ptr %6, align 8, !tbaa !11
  %57 = icmp ne i64 0, %56
  br i1 %57, label %58, label %131

58:                                               ; preds = %55
  call void @llvm.lifetime.start.p0(i64 8, ptr %11) #12
  %59 = load i64, ptr %6, align 8, !tbaa !11
  %60 = call ptr @H5I_object(i64 noundef %59)
  store ptr %60, ptr %11, align 8, !tbaa !13
  %61 = icmp eq ptr null, %60
  br i1 %61, label %62, label %81

62:                                               ; preds = %58
  br label %63

63:                                               ; preds = %62
  br label %64

64:                                               ; preds = %63
  br label %65

65:                                               ; preds = %64
  %66 = load i64, ptr @H5E_VFL_g, align 8, !tbaa !11
  %67 = load i64, ptr @H5E_BADTYPE_g, align 8, !tbaa !11
  %68 = call i32 (ptr, ptr, i32, i64, i64, ptr, ...) @H5E_printf_stack(ptr noundef @.str.1, ptr noundef @__func__.H5FD__core_get_handle, i32 noundef 1238, i64 noundef %66, i64 noundef %67, ptr noundef @.str.11)
  br label %69

69:                                               ; preds = %65
  br label %70

70:                                               ; preds = %69
  store i8 1, ptr %10, align 1, !tbaa !7
  %71 = load i8, ptr %10, align 1, !tbaa !7, !range !9, !noundef !10
  %72 = trunc i8 %71 to i1
  %73 = zext i1 %72 to i8
  store i8 %73, ptr %10, align 1, !tbaa !7
  br label %74

74:                                               ; preds = %70
  br label %75

75:                                               ; preds = %74
  br label %76

76:                                               ; preds = %75
  store i32 -1, ptr %9, align 4, !tbaa !3
  store i32 10, ptr %13, align 4
  br label %128

77:                                               ; No predecessors!
  br label %78

78:                                               ; preds = %77
  br label %79

79:                                               ; preds = %78
  br label %80

80:                                               ; preds = %79
  br label %81

81:                                               ; preds = %80, %58
  %82 = load ptr, ptr %11, align 8, !tbaa !13
  %83 = call i32 @H5P_exist_plist(ptr noundef %82, ptr noundef @.str.40)
  %84 = icmp sgt i32 %83, 0
  br i1 %84, label %85, label %123

85:                                               ; preds = %81
  call void @llvm.lifetime.start.p0(i64 1, ptr %12) #12
  %86 = load ptr, ptr %11, align 8, !tbaa !13
  %87 = call i32 @H5P_get(ptr noundef %86, ptr noundef @.str.40, ptr noundef %12)
  %88 = icmp slt i32 %87, 0
  br i1 %88, label %89, label %108

89:                                               ; preds = %85
  br label %90

90:                                               ; preds = %89
  br label %91

91:                                               ; preds = %90
  br label %92

92:                                               ; preds = %91
  %93 = load i64, ptr @H5E_VFL_g, align 8, !tbaa !11
  %94 = load i64, ptr @H5E_CANTGET_g, align 8, !tbaa !11
  %95 = call i32 (ptr, ptr, i32, i64, i64, ptr, ...) @H5E_printf_stack(ptr noundef @.str.1, ptr noundef @__func__.H5FD__core_get_handle, i32 noundef 1249, i64 noundef %93, i64 noundef %94, ptr noundef @.str.41)
  br label %96

96:                                               ; preds = %92
  br label %97

97:                                               ; preds = %96
  store i8 1, ptr %10, align 1, !tbaa !7
  %98 = load i8, ptr %10, align 1, !tbaa !7, !range !9, !noundef !10
  %99 = trunc i8 %98 to i1
  %100 = zext i1 %99 to i8
  store i8 %100, ptr %10, align 1, !tbaa !7
  br label %101

101:                                              ; preds = %97
  br label %102

102:                                              ; preds = %101
  br label %103

103:                                              ; preds = %102
  store i32 -1, ptr %9, align 4, !tbaa !3
  store i32 10, ptr %13, align 4
  br label %120

104:                                              ; No predecessors!
  br label %105

105:                                              ; preds = %104
  br label %106

106:                                              ; preds = %105
  br label %107

107:                                              ; preds = %106
  br label %108

108:                                              ; preds = %107, %85
  %109 = load i8, ptr %12, align 1, !tbaa !7, !range !9, !noundef !10
  %110 = trunc i8 %109 to i1
  br i1 %110, label %111, label %115

111:                                              ; preds = %108
  %112 = load ptr, ptr %8, align 8, !tbaa !31
  %113 = getelementptr inbounds nuw %struct.H5FD_core_t, ptr %112, i32 0, i32 10
  %114 = load ptr, ptr %7, align 8, !tbaa !33
  store ptr %113, ptr %114, align 8, !tbaa !33
  br label %119

115:                                              ; preds = %108
  %116 = load ptr, ptr %8, align 8, !tbaa !31
  %117 = getelementptr inbounds nuw %struct.H5FD_core_t, ptr %116, i32 0, i32 2
  %118 = load ptr, ptr %7, align 8, !tbaa !33
  store ptr %117, ptr %118, align 8, !tbaa !33
  br label %119

119:                                              ; preds = %115, %111
  store i32 0, ptr %13, align 4
  br label %120

120:                                              ; preds = %103, %119
  call void @llvm.lifetime.end.p0(i64 1, ptr %12) #12
  %121 = load i32, ptr %13, align 4
  switch i32 %121, label %128 [
    i32 0, label %122
  ]

122:                                              ; preds = %120
  br label %127

123:                                              ; preds = %81
  %124 = load ptr, ptr %8, align 8, !tbaa !31
  %125 = getelementptr inbounds nuw %struct.H5FD_core_t, ptr %124, i32 0, i32 2
  %126 = load ptr, ptr %7, align 8, !tbaa !33
  store ptr %125, ptr %126, align 8, !tbaa !33
  br label %127

127:                                              ; preds = %123, %122
  store i32 0, ptr %13, align 4
  br label %128

128:                                              ; preds = %76, %127, %120
  call void @llvm.lifetime.end.p0(i64 8, ptr %11) #12
  %129 = load i32, ptr %13, align 4
  switch i32 %129, label %139 [
    i32 0, label %130
    i32 10, label %136
  ]

130:                                              ; preds = %128
  br label %135

131:                                              ; preds = %55, %51
  %132 = load ptr, ptr %8, align 8, !tbaa !31
  %133 = getelementptr inbounds nuw %struct.H5FD_core_t, ptr %132, i32 0, i32 2
  %134 = load ptr, ptr %7, align 8, !tbaa !33
  store ptr %133, ptr %134, align 8, !tbaa !33
  br label %135

135:                                              ; preds = %131, %130
  br label %136

136:                                              ; preds = %135, %128, %46
  br label %137

137:                                              ; preds = %136, %21
  %138 = load i32, ptr %9, align 4, !tbaa !3
  store i32 %138, ptr %4, align 4
  store i32 1, ptr %13, align 4
  br label %139

139:                                              ; preds = %137, %128
  call void @llvm.lifetime.end.p0(i64 1, ptr %10) #12
  call void @llvm.lifetime.end.p0(i64 4, ptr %9) #12
  call void @llvm.lifetime.end.p0(i64 8, ptr %8) #12
  %140 = load i32, ptr %4, align 4
  ret i32 %140
}