; Function Attrs: nounwind uwtable
define internal range(i32 -1, 1) i32 @H5FD__core_get_handle(ptr noundef %0, i64 noundef %1, ptr noundef writeonly captures(address_is_null) %2) #0 {
  %4 = alloca i8, align 1
  %5 = load i8, ptr @H5FD_init_g, align 1, !tbaa !3, !range !7, !noundef !8
  %6 = trunc nuw i8 %5 to i1
  %7 = load i8, ptr @H5_libterm_g, align 1, !range !7
  %8 = trunc nuw i8 %7 to i1
  %9 = xor i1 %8, true
  %10 = select i1 %6, i1 true, i1 %9
  br i1 %10, label %11, label %45, !prof !9

11:                                               ; preds = %3
  %.not = icmp eq ptr %2, null
  br i1 %.not, label %12, label %16

12:                                               ; preds = %11
  %13 = load i64, ptr @H5E_ARGS_g, align 8, !tbaa !10
  %14 = load i64, ptr @H5E_BADVALUE_g, align 8, !tbaa !10
  %15 = tail call i32 (ptr, ptr, i32, i64, i64, ptr, ...) @H5E_printf_stack(ptr noundef nonnull @.str.1, ptr noundef nonnull @__func__.H5FD__core_get_handle, i32 noundef 1230, i64 noundef %13, i64 noundef %14, ptr noundef nonnull @.str.39) #18
  br label %45

16:                                               ; preds = %11
  %17 = load i64, ptr @H5P_LST_FILE_ACCESS_ID_g, align 8, !tbaa !10
  %18 = icmp ne i64 %17, %1
  %19 = icmp ne i64 %1, 0
  %or.cond = and i1 %19, %18
  br i1 %or.cond, label %20, label %43

20:                                               ; preds = %16
  %21 = tail call ptr @H5I_object(i64 noundef %1) #18
  %22 = icmp eq ptr %21, null
  br i1 %22, label %23, label %27

23:                                               ; preds = %20
  %24 = load i64, ptr @H5E_VFL_g, align 8, !tbaa !10
  %25 = load i64, ptr @H5E_BADTYPE_g, align 8, !tbaa !10
  %26 = tail call i32 (ptr, ptr, i32, i64, i64, ptr, ...) @H5E_printf_stack(ptr noundef nonnull @.str.1, ptr noundef nonnull @__func__.H5FD__core_get_handle, i32 noundef 1238, i64 noundef %24, i64 noundef %25, ptr noundef nonnull @.str.11) #18
  br label %45

27:                                               ; preds = %20
  %28 = tail call i32 @H5P_exist_plist(ptr noundef nonnull %21, ptr noundef nonnull @.str.40) #18
  %29 = icmp sgt i32 %28, 0
  br i1 %29, label %30, label %41

30:                                               ; preds = %27
  call void @llvm.lifetime.start.p0(i64 1, ptr nonnull %4) #18
  %31 = call i32 @H5P_get(ptr noundef nonnull %21, ptr noundef nonnull @.str.40, ptr noundef nonnull %4) #18
  %32 = icmp sgt i32 %31, -1
  br i1 %32, label %37, label %33

33:                                               ; preds = %30
  %34 = load i64, ptr @H5E_VFL_g, align 8, !tbaa !10
  %35 = load i64, ptr @H5E_CANTGET_g, align 8, !tbaa !10
  %36 = call i32 (ptr, ptr, i32, i64, i64, ptr, ...) @H5E_printf_stack(ptr noundef nonnull @.str.1, ptr noundef nonnull @__func__.H5FD__core_get_handle, i32 noundef 1249, i64 noundef %34, i64 noundef %35, ptr noundef nonnull @.str.41) #18
  br label %40

37:                                               ; preds = %30
  %38 = load i8, ptr %4, align 1, !tbaa !3, !range !7, !noundef !8
  %39 = trunc nuw i8 %38 to i1
  %storemerge.v = select i1 %39, i64 140, i64 88
  %storemerge = getelementptr inbounds nuw i8, ptr %0, i64 %storemerge.v
  store ptr %storemerge, ptr %2, align 8, !tbaa !40
  br label %40

40:                                               ; preds = %37, %33
  %.2 = phi i32 [ -1, %33 ], [ 0, %37 ]
  call void @llvm.lifetime.end.p0(i64 1, ptr nonnull %4) #18
  br label %45

41:                                               ; preds = %27
  %42 = getelementptr inbounds nuw i8, ptr %0, i64 88
  store ptr %42, ptr %2, align 8, !tbaa !40
  br label %45

43:                                               ; preds = %16
  %44 = getelementptr inbounds nuw i8, ptr %0, i64 88
  store ptr %44, ptr %2, align 8, !tbaa !40
  br label %45

45:                                               ; preds = %40, %23, %41, %3, %43, %12
  %.022 = phi i32 [ 0, %43 ], [ -1, %12 ], [ 0, %3 ], [ -1, %23 ], [ 0, %41 ], [ %.2, %40 ]
  ret i32 %.022
}